target datalayout = "e-m:e-p270:32:32-p271:32:32-p272:64:64-i64:64-i128:128-f80:128-n8:16:32:64-S128"
target triple = "x86_64-unknown-linux-gnu"

%"class.net::HpackDecoder" = type { %"class.net::HpackDecoderInterface", %"class.net::HpackHeaderTable", %"class.std::__cxx11::basic_string", %"class.net::SpdyHeaderBlock", %"class.std::__cxx11::basic_string", %"class.std::__cxx11::basic_string", ptr, i64, i64, i32, i8, i8, i8, i8 }
%"class.net::HpackDecoderInterface" = type { ptr }
%"class.net::HpackHeaderTable" = type { ptr, %"class.std::deque", ptr, ptr, %"class.std::unordered_set", %"class.std::unordered_map", i64, i64, i64, i64, %"class.std::unique_ptr" }
%"class.std::deque" = type { %"class.std::_Deque_base" }
%"class.std::_Deque_base" = type { %"struct.std::_Deque_base<net::HpackEntry, std::allocator<net::HpackEntry>>::_Deque_impl" }
%"struct.std::_Deque_base<net::HpackEntry, std::allocator<net::HpackEntry>>::_Deque_impl" = type { %"struct.std::_Deque_base<net::HpackEntry, std::allocator<net::HpackEntry>>::_Deque_impl_data" }
%"struct.std::_Deque_base<net::HpackEntry, std::allocator<net::HpackEntry>>::_Deque_impl_data" = type { ptr, i64, %"struct.std::_Deque_iterator", %"struct.std::_Deque_iterator" }
%"struct.std::_Deque_iterator" = type { ptr, ptr, ptr, ptr }
%"class.std::unordered_set" = type { %"class.std::_Hashtable" }
%"class.std::_Hashtable" = type { ptr, i64, %"struct.std::__detail::_Hash_node_base", i64, %"struct.std::__detail::_Prime_rehash_policy", ptr }
%"struct.std::__detail::_Hash_node_base" = type { ptr }
%"struct.std::__detail::_Prime_rehash_policy" = type { float, i64 }
%"class.std::unordered_map" = type { %"class.std::_Hashtable.5" }
%"class.std::_Hashtable.5" = type { ptr, i64, %"struct.std::__detail::_Hash_node_base", i64, %"struct.std::__detail::_Prime_rehash_policy", ptr }
%"class.std::unique_ptr" = type { %"struct.std::__uniq_ptr_data" }
%"struct.std::__uniq_ptr_data" = type { %"class.std::__uniq_ptr_impl" }
%"class.std::__uniq_ptr_impl" = type { %"class.std::tuple" }
%"class.std::tuple" = type { %"struct.std::_Tuple_impl" }
%"struct.std::_Tuple_impl" = type { %"struct.std::_Head_base.21" }
%"struct.std::_Head_base.21" = type { ptr }
%"class.net::SpdyHeaderBlock" = type { %class.linked_hash_map, %"class.std::unique_ptr.42" }
%class.linked_hash_map = type { %"class.std::unordered_map.25", %"class.std::__cxx11::list" }
%"class.std::unordered_map.25" = type { %"class.std::_Hashtable.26" }
%"class.std::_Hashtable.26" = type { ptr, i64, %"struct.std::__detail::_Hash_node_base", i64, %"struct.std::__detail::_Prime_rehash_policy", ptr }
%"class.std::__cxx11::list" = type { %"class.std::__cxx11::_List_base" }
%"class.std::__cxx11::_List_base" = type { %"struct.std::__cxx11::_List_base<std::pair<base::BasicStringPiece<std::string>, base::BasicStringPiece<std::string>>, std::allocator<std::pair<base::BasicStringPiece<std::string>, base::BasicStringPiece<std::string>>>>::_List_impl" }
%"struct.std::__cxx11::_List_base<std::pair<base::BasicStringPiece<std::string>, base::BasicStringPiece<std::string>>, std::allocator<std::pair<base::BasicStringPiece<std::string>, base::BasicStringPiece<std::string>>>>::_List_impl" = type { %"struct.std::__detail::_List_node_header" }
%"struct.std::__detail::_List_node_header" = type { %"struct.std::__detail::_List_node_base", i64 }
%"struct.std::__detail::_List_node_base" = type { ptr, ptr }
%"class.std::unique_ptr.42" = type { %"struct.std::__uniq_ptr_data.43" }
%"struct.std::__uniq_ptr_data.43" = type { %"class.std::__uniq_ptr_impl.44" }
%"class.std::__uniq_ptr_impl.44" = type { %"class.std::tuple.45" }
%"class.std::tuple.45" = type { %"struct.std::_Tuple_impl.46" }
%"struct.std::_Tuple_impl.46" = type { %"struct.std::_Head_base.49" }
%"struct.std::_Head_base.49" = type { ptr }
%"class.std::__cxx11::basic_string" = type { %"struct.std::__cxx11::basic_string<char>::_Alloc_hider", i64, %union.anon }
%"struct.std::__cxx11::basic_string<char>::_Alloc_hider" = type { ptr }
%union.anon = type { i64, [8 x i8] }

; Function Attrs: mustprogress uwtable
define dso_local noundef zeroext i1 @_ZN3net12HpackDecoder33HandleControlFrameHeadersCompleteEPm(ptr noundef nonnull align 8 dereferenceable(480) %this, ptr noundef %compressed_len) unnamed_addr #0 align 2 {
entry:
  %retval = alloca i1, align 1
  %this.addr = alloca ptr, align 8
  %compressed_len.addr = alloca ptr, align 8
  store ptr %this, ptr %this.addr, align 8
  store ptr %compressed_len, ptr %compressed_len.addr, align 8
  %this1 = load ptr, ptr %this.addr, align 8
  %0 = load ptr, ptr %compressed_len.addr, align 8
  %cmp = icmp ne ptr %0, null
  br i1 %cmp, label %if.then, label %if.end

if.then:                                          ; preds = %entry
  %total_parsed_bytes_ = getelementptr inbounds %"class.net::HpackDecoder", ptr %this1, i32 0, i32 9
  %1 = load i32, ptr %total_parsed_bytes_, align 8
  %conv = zext i32 %1 to i64
  %2 = load ptr, ptr %compressed_len.addr, align 8
  store i64 %conv, ptr %2, align 8
  br label %if.end

if.end:                                           ; preds = %if.then, %entry
  %headers_block_buffer_ = getelementptr inbounds %"class.net::HpackDecoder", ptr %this1, i32 0, i32 2
  %call = call noundef i64 @_ZNKSt7__cxx1112basic_stringIcSt11char_traitsIcESaIcEE4sizeEv(ptr noundef nonnull align 8 dereferenceable(32) %headers_block_buffer_) #9
  %cmp2 = icmp ugt i64 %call, 0
  br i1 %cmp2, label %if.then3, label %if.end4

if.then3:                                         ; preds = %if.end
  store i1 false, ptr %retval, align 1
  br label %return

if.end4:                                          ; preds = %if.end
  %handler_ = getelementptr inbounds %"class.net::HpackDecoder", ptr %this1, i32 0, i32 6
  %3 = load ptr, ptr %handler_, align 8
  %cmp5 = icmp ne ptr %3, null
  br i1 %cmp5, label %if.then6, label %if.end8

if.then6:                                         ; preds = %if.end4
  %handler_7 = getelementptr inbounds %"class.net::HpackDecoder", ptr %this1, i32 0, i32 6
  %4 = load ptr, ptr %handler_7, align 8
  %total_header_bytes_ = getelementptr inbounds %"class.net::HpackDecoder", ptr %this1, i32 0, i32 7
  %5 = load i64, ptr %total_header_bytes_, align 8
  %vtable = load ptr, ptr %4, align 8
  %vfn = getelementptr inbounds ptr, ptr %vtable, i64 4
  %6 = load ptr, ptr %vfn, align 8
  call void %6(ptr noundef nonnull align 8 dereferenceable(8) %4, i64 noundef %5)
  br label %if.end8

if.end8:                                          ; preds = %if.then6, %if.end4
  %headers_block_buffer_9 = getelementptr inbounds %"class.net::HpackDecoder", ptr %this1, i32 0, i32 2
  call void @_ZNSt7__cxx1112basic_stringIcSt11char_traitsIcESaIcEE5clearEv(ptr noundef nonnull align 8 dereferenceable(32) %headers_block_buffer_9) #9
  %total_parsed_bytes_10 = getelementptr inbounds %"class.net::HpackDecoder", ptr %this1, i32 0, i32 9
  store i32 0, ptr %total_parsed_bytes_10, align 8
  %header_block_started_ = getelementptr inbounds %"class.net::HpackDecoder", ptr %this1, i32 0, i32 10
  store i8 0, ptr %header_block_started_, align 4
  %handler_11 = getelementptr inbounds %"class.net::HpackDecoder", ptr %this1, i32 0, i32 6
  store ptr null, ptr %handler_11, align 8
  store i1 true, ptr %retval, align 1
  br label %return

return:                                           ; preds = %if.end8, %if.then3
  %7 = load i1, ptr %retval, align 1
  ret i1 %7
}