; Function Attrs: mustprogress uwtable
define dso_local noundef zeroext i1 @_ZN3net12HpackDecoder33HandleControlFrameHeadersCompleteEPm(ptr noundef nonnull align 8 dereferenceable(480) %this, ptr noundef writeonly %compressed_len) unnamed_addr #0 align 2 {
entry:
  %cmp.not = icmp eq ptr %compressed_len, null
  br i1 %cmp.not, label %if.end, label %if.then

if.then:                                          ; preds = %entry
  %total_parsed_bytes_ = getelementptr inbounds i8, ptr %this, i64 472
  %0 = load i32, ptr %total_parsed_bytes_, align 8
  %conv = zext i32 %0 to i64
  store i64 %conv, ptr %compressed_len, align 8
  br label %if.end

if.end:                                           ; preds = %if.then, %entry
  %headers_block_buffer_ = getelementptr inbounds i8, ptr %this, i64 264
  %call = tail call noundef i64 @_ZNKSt7__cxx1112basic_stringIcSt11char_traitsIcESaIcEE4sizeEv(ptr noundef nonnull align 8 dereferenceable(32) %headers_block_buffer_) #11
  %cmp2.not = icmp eq i64 %call, 0
  br i1 %cmp2.not, label %if.end4, label %return

if.end4:                                          ; preds = %if.end
  %handler_ = getelementptr inbounds i8, ptr %this, i64 448
  %1 = load ptr, ptr %handler_, align 8
  %cmp5.not = icmp eq ptr %1, null
  br i1 %cmp5.not, label %if.end8, label %if.then6

if.then6:                                         ; preds = %if.end4
  %total_header_bytes_ = getelementptr inbounds i8, ptr %this, i64 456
  %2 = load i64, ptr %total_header_bytes_, align 8
  %vtable = load ptr, ptr %1, align 8
  %vfn = getelementptr inbounds i8, ptr %vtable, i64 32
  %3 = load ptr, ptr %vfn, align 8
  tail call void %3(ptr noundef nonnull align 8 dereferenceable(8) %1, i64 noundef %2)
  br label %if.end8

if.end8:                                          ; preds = %if.then6, %if.end4
  tail call void @_ZNSt7__cxx1112basic_stringIcSt11char_traitsIcESaIcEE5clearEv(ptr noundef nonnull align 8 dereferenceable(32) %headers_block_buffer_) #11
  %total_parsed_bytes_10 = getelementptr inbounds i8, ptr %this, i64 472
  store i32 0, ptr %total_parsed_bytes_10, align 8
  %header_block_started_ = getelementptr inbounds i8, ptr %this, i64 476
  store i8 0, ptr %header_block_started_, align 4
  store ptr null, ptr %handler_, align 8
  br label %return

return:                                           ; preds = %if.end, %if.end8
  ret i1 %cmp2.not
}